; ModuleID = '14/1324.c'
source_filename = "14/1324.c"
target datalayout = "e-m:e-p270:32:32-p271:32:32-p272:64:64-i64:64-f80:128-n8:16:32:64-S128"
target triple = "x86_64-pc-linux-gnu"

%struct.student = type { i32, i32, i32, i32 }

@.str = private unnamed_addr constant [3 x i8] c"%d\00", align 1
@.str.1 = private unnamed_addr constant [7 x i8] c"%d%d%d\00", align 1
@.str.2 = private unnamed_addr constant [19 x i8] c"%d %d\0A%d %d\0A%d %d\0A\00", align 1

; Function Attrs: noinline nounwind uwtable
define dso_local i32 @main() #0 {
  %1 = alloca i32, align 4
  %2 = alloca [100000 x %struct.student], align 16
  %3 = alloca %struct.student, align 4
  %4 = alloca %struct.student, align 4
  %5 = alloca %struct.student, align 4
  %6 = alloca i32, align 4
  %7 = alloca i32, align 4
  store i32 0, i32* %1, align 4
  %8 = call i32 (i8*, ...) @__isoc99_scanf(i8* getelementptr inbounds ([3 x i8], [3 x i8]* @.str, i64 0, i64 0), i32* %7)
  store i32 0, i32* %6, align 4
  br label %9

9:                                                ; preds = %42, %0
  %10 = load i32, i32* %6, align 4
  %11 = load i32, i32* %7, align 4
  %12 = icmp slt i32 %10, %11
  br i1 %12, label %13, label %45

13:                                               ; preds = %9
  %14 = load i32, i32* %6, align 4
  %15 = sext i32 %14 to i64
  %16 = getelementptr inbounds [100000 x %struct.student], [100000 x %struct.student]* %2, i64 0, i64 %15
  %17 = getelementptr inbounds %struct.student, %struct.student* %16, i32 0, i32 0
  %18 = load i32, i32* %6, align 4
  %19 = sext i32 %18 to i64
  %20 = getelementptr inbounds [100000 x %struct.student], [100000 x %struct.student]* %2, i64 0, i64 %19
  %21 = getelementptr inbounds %struct.student, %struct.student* %20, i32 0, i32 1
  %22 = load i32, i32* %6, align 4
  %23 = sext i32 %22 to i64
  %24 = getelementptr inbounds [100000 x %struct.student], [100000 x %struct.student]* %2, i64 0, i64 %23
  %25 = getelementptr inbounds %struct.student, %struct.student* %24, i32 0, i32 2
  %26 = call i32 (i8*, ...) @__isoc99_scanf(i8* getelementptr inbounds ([7 x i8], [7 x i8]* @.str.1, i64 0, i64 0), i32* %17, i32* %21, i32* %25)
  %27 = load i32, i32* %6, align 4
  %28 = sext i32 %27 to i64
  %29 = getelementptr inbounds [100000 x %struct.student], [100000 x %struct.student]* %2, i64 0, i64 %28
  %30 = getelementptr inbounds %struct.student, %struct.student* %29, i32 0, i32 1
  %31 = load i32, i32* %30, align 4
  %32 = load i32, i32* %6, align 4
  %33 = sext i32 %32 to i64
  %34 = getelementptr inbounds [100000 x %struct.student], [100000 x %struct.student]* %2, i64 0, i64 %33
  %35 = getelementptr inbounds %struct.student, %struct.student* %34, i32 0, i32 2
  %36 = load i32, i32* %35, align 8
  %37 = add nsw i32 %31, %36
  %38 = load i32, i32* %6, align 4
  %39 = sext i32 %38 to i64
  %40 = getelementptr inbounds [100000 x %struct.student], [100000 x %struct.student]* %2, i64 0, i64 %39
  %41 = getelementptr inbounds %struct.student, %struct.student* %40, i32 0, i32 3
  store i32 %37, i32* %41, align 4
  br label %42

42:                                               ; preds = %13
  %43 = load i32, i32* %6, align 4
  %44 = add nsw i32 %43, 1
  store i32 %44, i32* %6, align 4
  br label %9

45:                                               ; preds = %9
  %46 = getelementptr inbounds %struct.student, %struct.student* %5, i32 0, i32 3
  store i32 0, i32* %46, align 4
  %47 = getelementptr inbounds %struct.student, %struct.student* %4, i32 0, i32 3
  store i32 0, i32* %47, align 4
  %48 = getelementptr inbounds %struct.student, %struct.student* %3, i32 0, i32 3
  store i32 0, i32* %48, align 4
  store i32 0, i32* %6, align 4
  br label %49

49:                                               ; preds = %107, %45
  %50 = load i32, i32* %6, align 4
  %51 = load i32, i32* %7, align 4
  %52 = icmp slt i32 %50, %51
  br i1 %52, label %53, label %110

53:                                               ; preds = %49
  %54 = load i32, i32* %6, align 4
  %55 = sext i32 %54 to i64
  %56 = getelementptr inbounds [100000 x %struct.student], [100000 x %struct.student]* %2, i64 0, i64 %55
  %57 = getelementptr inbounds %struct.student, %struct.student* %56, i32 0, i32 3
  %58 = load i32, i32* %57, align 4
  %59 = getelementptr inbounds %struct.student, %struct.student* %3, i32 0, i32 3
  %60 = load i32, i32* %59, align 4
  %61 = icmp sgt i32 %58, %60
  br i1 %61, label %62, label %72

62:                                               ; preds = %53
  %63 = bitcast %struct.student* %5 to i8*
  %64 = bitcast %struct.student* %4 to i8*
  call void @llvm.memcpy.p0i8.p0i8.i64(i8* align 4 %63, i8* align 4 %64, i64 16, i1 false)
  %65 = bitcast %struct.student* %4 to i8*
  %66 = bitcast %struct.student* %3 to i8*
  call void @llvm.memcpy.p0i8.p0i8.i64(i8* align 4 %65, i8* align 4 %66, i64 16, i1 false)
  %67 = load i32, i32* %6, align 4
  %68 = sext i32 %67 to i64
  %69 = getelementptr inbounds [100000 x %struct.student], [100000 x %struct.student]* %2, i64 0, i64 %68
  %70 = bitcast %struct.student* %3 to i8*
  %71 = bitcast %struct.student* %69 to i8*
  call void @llvm.memcpy.p0i8.p0i8.i64(i8* align 4 %70, i8* align 16 %71, i64 16, i1 false)
  br label %106

72:                                               ; preds = %53
  %73 = load i32, i32* %6, align 4
  %74 = sext i32 %73 to i64
  %75 = getelementptr inbounds [100000 x %struct.student], [100000 x %struct.student]* %2, i64 0, i64 %74
  %76 = getelementptr inbounds %struct.student, %struct.student* %75, i32 0, i32 3
  %77 = load i32, i32* %76, align 4
  %78 = getelementptr inbounds %struct.student, %struct.student* %4, i32 0, i32 3
  %79 = load i32, i32* %78, align 4
  %80 = icmp sgt i32 %77, %79
  br i1 %80, label %81, label %89

81:                                               ; preds = %72
  %82 = bitcast %struct.student* %5 to i8*
  %83 = bitcast %struct.student* %4 to i8*
  call void @llvm.memcpy.p0i8.p0i8.i64(i8* align 4 %82, i8* align 4 %83, i64 16, i1 false)
  %84 = load i32, i32* %6, align 4
  %85 = sext i32 %84 to i64
  %86 = getelementptr inbounds [100000 x %struct.student], [100000 x %struct.student]* %2, i64 0, i64 %85
  %87 = bitcast %struct.student* %4 to i8*
  %88 = bitcast %struct.student* %86 to i8*
  call void @llvm.memcpy.p0i8.p0i8.i64(i8* align 4 %87, i8* align 16 %88, i64 16, i1 false)
  br label %105

89:                                               ; preds = %72
  %90 = load i32, i32* %6, align 4
  %91 = sext i32 %90 to i64
  %92 = getelementptr inbounds [100000 x %struct.student], [100000 x %struct.student]* %2, i64 0, i64 %91
  %93 = getelementptr inbounds %struct.student, %struct.student* %92, i32 0, i32 3
  %94 = load i32, i32* %93, align 4
  %95 = getelementptr inbounds %struct.student, %struct.student* %5, i32 0, i32 3
  %96 = load i32, i32* %95, align 4
  %97 = icmp sgt i32 %94, %96
  br i1 %97, label %98, label %104

98:                                               ; preds = %89
  %99 = load i32, i32* %6, align 4
  %100 = sext i32 %99 to i64
  %101 = getelementptr inbounds [100000 x %struct.student], [100000 x %struct.student]* %2, i64 0, i64 %100
  %102 = bitcast %struct.student* %5 to i8*
  %103 = bitcast %struct.student* %101 to i8*
  call void @llvm.memcpy.p0i8.p0i8.i64(i8* align 4 %102, i8* align 16 %103, i64 16, i1 false)
  br label %104

104:                                              ; preds = %98, %89
  br label %105

105:                                              ; preds = %104, %81
  br label %106

106:                                              ; preds = %105, %62
  br label %107

107:                                              ; preds = %106
  %108 = load i32, i32* %6, align 4
  %109 = add nsw i32 %108, 1
  store i32 %109, i32* %6, align 4
  br label %49

110:                                              ; preds = %49
  %111 = getelementptr inbounds %struct.student, %struct.student* %3, i32 0, i32 0
  %112 = load i32, i32* %111, align 4
  %113 = getelementptr inbounds %struct.student, %struct.student* %3, i32 0, i32 3
  %114 = load i32, i32* %113, align 4
  %115 = getelementptr inbounds %struct.student, %struct.student* %4, i32 0, i32 0
  %116 = load i32, i32* %115, align 4
  %117 = getelementptr inbounds %struct.student, %struct.student* %4, i32 0, i32 3
  %118 = load i32, i32* %117, align 4
  %119 = getelementptr inbounds %struct.student, %struct.student* %5, i32 0, i32 0
  %120 = load i32, i32* %119, align 4
  %121 = getelementptr inbounds %struct.student, %struct.student* %5, i32 0, i32 3
  %122 = load i32, i32* %121, align 4
  %123 = call i32 (i8*, ...) @printf(i8* getelementptr inbounds ([19 x i8], [19 x i8]* @.str.2, i64 0, i64 0), i32 %112, i32 %114, i32 %116, i32 %118, i32 %120, i32 %122)
  ret i32 0
}

declare dso_local i32 @__isoc99_scanf(i8*, ...) #1

; Function Attrs: argmemonly nounwind willreturn
declare void @llvm.memcpy.p0i8.p0i8.i64(i8* noalias nocapture writeonly, i8* noalias nocapture readonly, i64, i1 immarg) #2

declare dso_local i32 @printf(i8*, ...) #1


!llvm.module.flags = !{!0}
!llvm.ident = !{!1}

!0 = !{i32 1, !"wchar_size", i32 4}
!1 = !{!"clang version 10.0.0-4ubuntu1 "}
